target datalayout = "e-m:e-p270:32:32-p271:32:32-p272:64:64-i64:64-i128:128-f80:128-n8:16:32:64-S128"
target triple = "x86_64-pc-linux-gnu"

; Function Attrs: mustprogress uwtable
define void @_ZN3zmq18tune_tcp_busy_pollEii(i32 noundef %0, i32 noundef %1) #0 {
  %3 = alloca i32, align 4
  %4 = alloca i32, align 4
  %5 = alloca i32, align 4
  store i32 %0, ptr %3, align 4, !tbaa !3
  store i32 %1, ptr %4, align 4, !tbaa !3
  %6 = load i32, ptr %4, align 4, !tbaa !3
  %7 = icmp sgt i32 %6, 0
  br i1 %7, label %8, label %13

8:                                                ; preds = %2
  call void @llvm.lifetime.start.p0(i64 4, ptr %5) #7
  %9 = load i32, ptr %3, align 4, !tbaa !3
  %10 = call i32 @setsockopt(i32 noundef %9, i32 noundef 1, i32 noundef 46, ptr noundef %4, i32 noundef 4) #7
  store i32 %10, ptr %5, align 4, !tbaa !3
  %11 = load i32, ptr %3, align 4, !tbaa !3
  %12 = load i32, ptr %5, align 4, !tbaa !3
  call void @_ZN3zmq29assert_success_or_recoverableEii(i32 noundef %11, i32 noundef %12)
  call void @llvm.lifetime.end.p0(i64 4, ptr %5) #7
  br label %13

13:                                               ; preds = %8, %2
  ret void
}