; Function Attrs: mustprogress uwtable
define void @_ZN3zmq18tune_tcp_busy_pollEii(i32 noundef %0, i32 noundef %1) local_unnamed_addr #0 {
  %3 = alloca i32, align 4
  store i32 %1, ptr %3, align 4, !tbaa !3
  %4 = icmp sgt i32 %1, 0
  br i1 %4, label %5, label %7

5:                                                ; preds = %2
  %6 = call i32 @setsockopt(i32 noundef %0, i32 noundef 1, i32 noundef 46, ptr noundef nonnull %3, i32 noundef 4) #7
  call void @_ZN3zmq29assert_success_or_recoverableEii(i32 noundef %0, i32 noundef %6)
  br label %7

7:                                                ; preds = %5, %2
  ret void
}